target datalayout = "e-m:e-p270:32:32-p271:32:32-p272:64:64-i64:64-i128:128-f80:128-n8:16:32:64-S128"
target triple = "x86_64-pc-linux-gnu"

%struct.AVChannelLayout = type { i32, i32, %union.anon.1, ptr }
%union.anon.1 = type { i64 }
%struct.AVCodecContext = type { ptr, i32, i32, ptr, i32, i32, ptr, ptr, ptr, i64, i32, i32, ptr, i32, %struct.AVRational, %struct.AVRational, %struct.AVRational, i32, i32, i32, i32, i32, %struct.AVRational, i32, i32, i32, i32, i32, i32, i32, i32, i32, i32, i32, ptr, ptr, i32, float, float, float, float, float, float, float, float, float, i32, i32, i32, i32, i32, i32, i32, i32, i32, i32, i32, i32, ptr, ptr, ptr, i32, i32, i32, i32, i32, i32, i32, i32, i32, i32, %struct.AVChannelLayout, i32, i32, i32, i32, i32, i32, i32, i32, ptr, i32, i32, i32, float, float, i32, i32, i32, i32, i32, ptr, i64, i64, float, float, i32, i32, ptr, ptr, i32, i32, i32, i32, i32, ptr, ptr, ptr, ptr, i32, i32, [8 x i64], i32, i32, i32, i32, i32, i32, i32, ptr, ptr, i32, i32, i32, i32, i32, i32, i32, i32, i32, i32, ptr, ptr, i32, i32, ptr, ptr, ptr, ptr, i32, i32, i64, i32, i32, i64, ptr, i64, ptr, i32, ptr, i32 }
%struct.AVRational = type { i32, i32 }
%struct.ALACContext = type { ptr, ptr, %struct.GetBitContext, i32, [2 x ptr], [2 x ptr], [2 x ptr], i32, i8, i8, i8, i8, i32, i32, i32, i32, i32, %struct.ALACDSPContext }
%struct.GetBitContext = type { ptr, ptr, i32, i32, i32 }
%struct.ALACDSPContext = type { ptr, [2 x ptr] }

; Function Attrs: cold nounwind optsize uwtable
define internal i32 @alac_decode_close(ptr noundef %0) #0 {
  %2 = alloca ptr, align 8
  %3 = alloca ptr, align 8
  %4 = alloca i32, align 4
  store ptr %0, ptr %2, align 8, !tbaa !4
  call void @llvm.lifetime.start.p0(i64 8, ptr %3) #11
  %5 = load ptr, ptr %2, align 8, !tbaa !4
  %6 = getelementptr inbounds nuw %struct.AVCodecContext, ptr %5, i32 0, i32 6
  %7 = load ptr, ptr %6, align 8, !tbaa !9
  store ptr %7, ptr %3, align 8, !tbaa !29
  call void @llvm.lifetime.start.p0(i64 4, ptr %4) #11
  store i32 0, ptr %4, align 4, !tbaa !36
  br label %8

8:                                                ; preds = %44, %1
  %9 = load i32, ptr %4, align 4, !tbaa !36
  %10 = load ptr, ptr %3, align 8, !tbaa !29
  %11 = getelementptr inbounds nuw %struct.ALACContext, ptr %10, i32 0, i32 3
  %12 = load i32, ptr %11, align 8, !tbaa !42
  %13 = icmp sgt i32 %12, 2
  br i1 %13, label %14, label %15

14:                                               ; preds = %8
  br label %19

15:                                               ; preds = %8
  %16 = load ptr, ptr %3, align 8, !tbaa !29
  %17 = getelementptr inbounds nuw %struct.ALACContext, ptr %16, i32 0, i32 3
  %18 = load i32, ptr %17, align 8, !tbaa !42
  br label %19

19:                                               ; preds = %15, %14
  %20 = phi i32 [ 2, %14 ], [ %18, %15 ]
  %21 = icmp slt i32 %9, %20
  br i1 %21, label %22, label %47

22:                                               ; preds = %19
  %23 = load ptr, ptr %3, align 8, !tbaa !29
  %24 = getelementptr inbounds nuw %struct.ALACContext, ptr %23, i32 0, i32 4
  %25 = load i32, ptr %4, align 4, !tbaa !36
  %26 = sext i32 %25 to i64
  %27 = getelementptr inbounds [2 x ptr], ptr %24, i64 0, i64 %26
  call void @av_freep(ptr noundef %27)
  %28 = load ptr, ptr %3, align 8, !tbaa !29
  %29 = getelementptr inbounds nuw %struct.ALACContext, ptr %28, i32 0, i32 15
  %30 = load i32, ptr %29, align 4, !tbaa !58
  %31 = icmp ne i32 %30, 0
  br i1 %31, label %38, label %32

32:                                               ; preds = %22
  %33 = load ptr, ptr %3, align 8, !tbaa !29
  %34 = getelementptr inbounds nuw %struct.ALACContext, ptr %33, i32 0, i32 5
  %35 = load i32, ptr %4, align 4, !tbaa !36
  %36 = sext i32 %35 to i64
  %37 = getelementptr inbounds [2 x ptr], ptr %34, i64 0, i64 %36
  call void @av_freep(ptr noundef %37)
  br label %38

38:                                               ; preds = %32, %22
  %39 = load ptr, ptr %3, align 8, !tbaa !29
  %40 = getelementptr inbounds nuw %struct.ALACContext, ptr %39, i32 0, i32 6
  %41 = load i32, ptr %4, align 4, !tbaa !36
  %42 = sext i32 %41 to i64
  %43 = getelementptr inbounds [2 x ptr], ptr %40, i64 0, i64 %42
  call void @av_freep(ptr noundef %43)
  br label %44

44:                                               ; preds = %38
  %45 = load i32, ptr %4, align 4, !tbaa !36
  %46 = add nsw i32 %45, 1
  store i32 %46, ptr %4, align 4, !tbaa !36
  br label %8, !llvm.loop !59

47:                                               ; preds = %19
  call void @llvm.lifetime.end.p0(i64 4, ptr %4) #11
  call void @llvm.lifetime.end.p0(i64 8, ptr %3) #11
  ret i32 0
}