; Function Attrs: cold nounwind optsize uwtable
define internal noundef i32 @alac_decode_close(ptr noundef readonly captures(none) %0) #0 {
  %2 = getelementptr inbounds nuw i8, ptr %0, i64 32
  %3 = load ptr, ptr %2, align 8, !tbaa !4
  %4 = getelementptr inbounds nuw i8, ptr %3, i64 48
  %5 = load i32, ptr %4, align 8, !tbaa !40
  %6 = icmp sgt i32 %5, 0
  br i1 %6, label %.lr.ph, label %._crit_edge

.lr.ph:                                           ; preds = %1
  %7 = getelementptr inbounds nuw i8, ptr %3, i64 56
  %8 = getelementptr inbounds nuw i8, ptr %3, i64 124
  %9 = getelementptr inbounds nuw i8, ptr %3, i64 72
  %10 = getelementptr inbounds nuw i8, ptr %3, i64 88
  br label %11

11:                                               ; preds = %.lr.ph, %16
  %indvars.iv = phi i64 [ 0, %.lr.ph ], [ %indvars.iv.next, %16 ]
  %12 = getelementptr inbounds nuw [2 x ptr], ptr %7, i64 0, i64 %indvars.iv
  tail call void @av_freep(ptr noundef nonnull %12) #7
  %13 = load i32, ptr %8, align 4, !tbaa !52
  %.not = icmp eq i32 %13, 0
  br i1 %.not, label %14, label %16

14:                                               ; preds = %11
  %15 = getelementptr inbounds nuw [2 x ptr], ptr %9, i64 0, i64 %indvars.iv
  tail call void @av_freep(ptr noundef nonnull %15) #7
  br label %16

16:                                               ; preds = %14, %11
  %17 = getelementptr inbounds nuw [2 x ptr], ptr %10, i64 0, i64 %indvars.iv
  tail call void @av_freep(ptr noundef nonnull %17) #7
  %indvars.iv.next = add nuw nsw i64 %indvars.iv, 1
  %18 = load i32, ptr %4, align 8, !tbaa !40
  %spec.select = tail call i32 @llvm.smin.i32(i32 %18, i32 2)
  %19 = sext i32 %spec.select to i64
  %20 = icmp slt i64 %indvars.iv.next, %19
  br i1 %20, label %11, label %._crit_edge, !llvm.loop !97

._crit_edge:                                      ; preds = %16, %1
  ret i32 0
}